; Function Attrs: nounwind uwtable
define ptr @l_Lean_instReprSMap___rarg(ptr noundef readnone captures(none) %0, ptr noundef readnone captures(none) %1, ptr noundef %2, ptr noundef %3, ptr noundef readonly captures(none) %4, ptr noundef %5) local_unnamed_addr #0 {
  %7 = load ptr, ptr @l_Lean_SMap_toList___rarg___closed__1, align 8, !tbaa !4
  %8 = tail call ptr @l_Lean_SMap_fold___at_Lean_SMap_toList___spec__1___rarg(ptr readnone poison, ptr readnone poison, ptr nonnull poison, ptr noundef %7, ptr noundef nonnull inttoptr (i64 1 to ptr), ptr noundef readonly %4)
  %9 = tail call ptr @l_List_repr___at_Lean_instReprSMap___spec__1___rarg(ptr noundef %2, ptr noundef %3, ptr noundef %8, ptr nonnull poison)
  %10 = load ptr, ptr @l_Lean_instReprSMap___rarg___closed__2, align 8, !tbaa !4
  tail call void @lean_inc_heartbeat() #3
  %11 = tail call noalias ptr @mi_malloc_small(i64 noundef 24) #3
  %12 = icmp eq ptr %11, null
  br i1 %12, label %13, label %lean_alloc_ctor.exit

13:                                               ; preds = %6
  tail call void @lean_internal_panic_out_of_memory() #4
  unreachable

lean_alloc_ctor.exit:                             ; preds = %6
  %14 = getelementptr inbounds nuw i8, ptr %11, i64 4
  store i32 1, ptr %11, align 4, !tbaa !10
  store i32 84017176, ptr %14, align 4
  %15 = getelementptr inbounds nuw i8, ptr %11, i64 8
  store ptr %9, ptr %15, align 8, !tbaa !4
  %16 = getelementptr inbounds nuw i8, ptr %11, i64 16
  store ptr %10, ptr %16, align 8, !tbaa !4
  %17 = tail call ptr @l_Repr_addAppParen(ptr noundef nonnull %11, ptr noundef %5) #3
  ret ptr %17
}